; Function Attrs: mustprogress uwtable
define internal fastcc noundef zeroext i1 @_ZN32pxrInternal_v0_24__pxrReserved__L8_IsCloseINS_7GfQuatdEEEbRKNS_7VtArrayIT_EES6_(ptr noundef nonnull align 8 dereferenceable(40) %0, ptr noundef nonnull align 8 dereferenceable(40) %1) unnamed_addr #0 {
  %3 = tail call noundef i64 @_ZNK32pxrInternal_v0_24__pxrReserved__7VtArrayINS_7GfQuatdEE4sizeEv(ptr noundef nonnull align 8 dereferenceable(40) %0)
  %4 = tail call noundef i64 @_ZNK32pxrInternal_v0_24__pxrReserved__7VtArrayINS_7GfQuatdEE4sizeEv(ptr noundef nonnull align 8 dereferenceable(40) %1)
  %.not = icmp eq i64 %3, %4
  br i1 %.not, label %.preheader, label %_ZN32pxrInternal_v0_24__pxrReserved__L8_IsCloseINS_7GfQuatdETnPNSt9enable_ifIXsr10GfIsGfQuatIT_EE5valueEvE4typeELPv0EEEbRKS3_S9_.exit.thread

.preheader:                                       ; preds = %2
  %5 = tail call noundef i64 @_ZNK32pxrInternal_v0_24__pxrReserved__7VtArrayINS_7GfQuatdEE4sizeEv(ptr noundef nonnull align 8 dereferenceable(40) %0)
  %.not15 = icmp eq i64 %5, 0
  br i1 %.not15, label %_ZN32pxrInternal_v0_24__pxrReserved__L8_IsCloseINS_7GfQuatdETnPNSt9enable_ifIXsr10GfIsGfQuatIT_EE5valueEvE4typeELPv0EEEbRKS3_S9_.exit.thread, label %.lr.ph

6:                                                ; preds = %_ZN32pxrInternal_v0_24__pxrReserved__L8_IsCloseINS_7GfQuatdETnPNSt9enable_ifIXsr10GfIsGfQuatIT_EE5valueEvE4typeELPv0EEEbRKS3_S9_.exit
  %7 = add nuw i64 %.011, 1
  %8 = tail call noundef i64 @_ZNK32pxrInternal_v0_24__pxrReserved__7VtArrayINS_7GfQuatdEE4sizeEv(ptr noundef nonnull align 8 dereferenceable(40) %0)
  %9 = icmp ult i64 %7, %8
  br i1 %9, label %.lr.ph, label %_ZN32pxrInternal_v0_24__pxrReserved__L8_IsCloseINS_7GfQuatdETnPNSt9enable_ifIXsr10GfIsGfQuatIT_EE5valueEvE4typeELPv0EEEbRKS3_S9_.exit.thread, !llvm.loop !31

.lr.ph:                                           ; preds = %.preheader, %6
  %.011 = phi i64 [ %7, %6 ], [ 0, %.preheader ]
  %10 = tail call noundef nonnull align 8 dereferenceable(32) ptr @_ZNK32pxrInternal_v0_24__pxrReserved__7VtArrayINS_7GfQuatdEEixEm(ptr noundef nonnull align 8 dereferenceable(40) %0, i64 noundef %.011)
  %11 = tail call noundef nonnull align 8 dereferenceable(32) ptr @_ZNK32pxrInternal_v0_24__pxrReserved__7VtArrayINS_7GfQuatdEEixEm(ptr noundef nonnull align 8 dereferenceable(40) %1, i64 noundef %.011)
  %12 = getelementptr inbounds nuw i8, ptr %10, i64 24
  %13 = load double, ptr %12, align 8
  %14 = getelementptr inbounds nuw i8, ptr %11, i64 24
  %15 = load double, ptr %14, align 8
  %16 = fsub double %13, %15
  %17 = tail call double @llvm.fabs.f64(double %16)
  %18 = fcmp olt double %17, 0x3D719799812DEA11
  br i1 %18, label %.preheader.i, label %_ZN32pxrInternal_v0_24__pxrReserved__L8_IsCloseINS_7GfQuatdETnPNSt9enable_ifIXsr10GfIsGfQuatIT_EE5valueEvE4typeELPv0EEEbRKS3_S9_.exit.thread

.preheader.i:                                     ; preds = %.lr.ph, %.preheader.i
  %.08.i.i = phi i64 [ %24, %.preheader.i ], [ 0, %.lr.ph ]
  %19 = getelementptr inbounds nuw [3 x double], ptr %10, i64 0, i64 %.08.i.i
  %20 = getelementptr inbounds nuw [3 x double], ptr %11, i64 0, i64 %.08.i.i
  %.val.i.i = load double, ptr %19, align 8
  %.val7.i.i = load double, ptr %20, align 8
  %21 = fsub double %.val.i.i, %.val7.i.i
  %22 = tail call double @llvm.fabs.f64(double %21)
  %23 = fcmp olt double %22, 0x3D719799812DEA11
  %24 = add nuw nsw i64 %.08.i.i, 1
  %exitcond.i.i = icmp ne i64 %24, 3
  %or.cond.not.i.i = select i1 %23, i1 %exitcond.i.i, i1 false
  br i1 %or.cond.not.i.i, label %.preheader.i, label %_ZN32pxrInternal_v0_24__pxrReserved__L8_IsCloseINS_7GfQuatdETnPNSt9enable_ifIXsr10GfIsGfQuatIT_EE5valueEvE4typeELPv0EEEbRKS3_S9_.exit, !llvm.loop !7

_ZN32pxrInternal_v0_24__pxrReserved__L8_IsCloseINS_7GfQuatdETnPNSt9enable_ifIXsr10GfIsGfQuatIT_EE5valueEvE4typeELPv0EEEbRKS3_S9_.exit: ; preds = %.preheader.i
  br i1 %23, label %6, label %_ZN32pxrInternal_v0_24__pxrReserved__L8_IsCloseINS_7GfQuatdETnPNSt9enable_ifIXsr10GfIsGfQuatIT_EE5valueEvE4typeELPv0EEEbRKS3_S9_.exit.thread

_ZN32pxrInternal_v0_24__pxrReserved__L8_IsCloseINS_7GfQuatdETnPNSt9enable_ifIXsr10GfIsGfQuatIT_EE5valueEvE4typeELPv0EEEbRKS3_S9_.exit.thread: ; preds = %_ZN32pxrInternal_v0_24__pxrReserved__L8_IsCloseINS_7GfQuatdETnPNSt9enable_ifIXsr10GfIsGfQuatIT_EE5valueEvE4typeELPv0EEEbRKS3_S9_.exit, %6, %.lr.ph, %.preheader, %2
  %.09 = phi i1 [ false, %2 ], [ true, %.preheader ], [ false, %_ZN32pxrInternal_v0_24__pxrReserved__L8_IsCloseINS_7GfQuatdETnPNSt9enable_ifIXsr10GfIsGfQuatIT_EE5valueEvE4typeELPv0EEEbRKS3_S9_.exit ], [ true, %6 ], [ false, %.lr.ph ]
  ret i1 %.09
}